target datalayout = "e-m:e-p270:32:32-p271:32:32-p272:64:64-i64:64-i128:128-f80:128-n8:16:32:64-S128"
target triple = "x86_64-pc-linux-gnu"

@hf_gadu_gadu_userlist = internal global i32 0, align 4
@xml_handle = internal global ptr null, align 8
@.str.244 = private unnamed_addr constant [3 x i8] c"%s\00", align 1
@.str.245 = private unnamed_addr constant [26 x i8] c"[Decompression succeeded]\00", align 1
@.str.246 = private unnamed_addr constant [22 x i8] c"Uncompressed userlist\00", align 1
@.str.247 = private unnamed_addr constant [43 x i8] c"[Error: Decompression failed] (or no zlib)\00", align 1

; Function Attrs: null_pointer_is_valid sspstrong uwtable
define internal i32 @dissect_gadu_gadu_userlist_xml_compressed(ptr noundef %0, ptr noundef %1, ptr noundef %2, i32 noundef %3) #0 {
  %5 = alloca i32, align 4
  %6 = alloca ptr, align 8
  %7 = alloca ptr, align 8
  %8 = alloca ptr, align 8
  %9 = alloca i32, align 4
  %10 = alloca i32, align 4
  %11 = alloca ptr, align 8
  %12 = alloca i32, align 4
  store ptr %0, ptr %6, align 8
  store ptr %1, ptr %7, align 8
  store ptr %2, ptr %8, align 8
  store i32 %3, ptr %9, align 4
  call void @llvm.lifetime.start.p0(i64 4, ptr %10) #6
  %13 = load ptr, ptr %6, align 8
  %14 = load i32, ptr %9, align 4
  %15 = call i32 @tvb_reported_length_remaining(ptr noundef %13, i32 noundef %14)
  store i32 %15, ptr %10, align 4
  call void @llvm.lifetime.start.p0(i64 8, ptr %11) #6
  %16 = load i32, ptr %10, align 4
  %17 = icmp sle i32 %16, 0
  br i1 %17, label %18, label %20

18:                                               ; preds = %4
  %19 = load i32, ptr %9, align 4
  store i32 %19, ptr %5, align 4
  store i32 1, ptr %12, align 4
  br label %53

20:                                               ; preds = %4
  %21 = load ptr, ptr %6, align 8
  %22 = load ptr, ptr %6, align 8
  %23 = load i32, ptr %9, align 4
  %24 = load i32, ptr %10, align 4
  %25 = call ptr @tvb_child_uncompress_zlib(ptr noundef %21, ptr noundef %22, i32 noundef %23, i32 noundef %24)
  store ptr %25, ptr %11, align 8
  %26 = icmp ne ptr %25, null
  br i1 %26, label %27, label %41

27:                                               ; preds = %20
  %28 = load ptr, ptr %8, align 8
  %29 = load i32, ptr @hf_gadu_gadu_userlist, align 4
  %30 = load ptr, ptr %6, align 8
  %31 = load i32, ptr %9, align 4
  %32 = load i32, ptr %10, align 4
  %33 = call ptr (ptr, i32, ptr, i32, i32, ptr, ptr, ...) @proto_tree_add_bytes_format_value(ptr noundef %28, i32 noundef %29, ptr noundef %30, i32 noundef %31, i32 noundef %32, ptr noundef null, ptr noundef @.str.244, ptr noundef @.str.245)
  %34 = load ptr, ptr %7, align 8
  %35 = load ptr, ptr %11, align 8
  call void @add_new_data_source(ptr noundef %34, ptr noundef %35, ptr noundef @.str.246)
  %36 = load ptr, ptr @xml_handle, align 8
  %37 = load ptr, ptr %11, align 8
  %38 = load ptr, ptr %7, align 8
  %39 = load ptr, ptr %8, align 8
  %40 = call i32 @call_dissector_only(ptr noundef %36, ptr noundef %37, ptr noundef %38, ptr noundef %39, ptr noundef null)
  br label %48

41:                                               ; preds = %20
  %42 = load ptr, ptr %8, align 8
  %43 = load i32, ptr @hf_gadu_gadu_userlist, align 4
  %44 = load ptr, ptr %6, align 8
  %45 = load i32, ptr %9, align 4
  %46 = load i32, ptr %10, align 4
  %47 = call ptr (ptr, i32, ptr, i32, i32, ptr, ptr, ...) @proto_tree_add_bytes_format_value(ptr noundef %42, i32 noundef %43, ptr noundef %44, i32 noundef %45, i32 noundef %46, ptr noundef null, ptr noundef @.str.244, ptr noundef @.str.247)
  br label %48

48:                                               ; preds = %41, %27
  %49 = load i32, ptr %10, align 4
  %50 = load i32, ptr %9, align 4
  %51 = add i32 %50, %49
  store i32 %51, ptr %9, align 4
  %52 = load i32, ptr %9, align 4
  store i32 %52, ptr %5, align 4
  store i32 1, ptr %12, align 4
  br label %53

53:                                               ; preds = %48, %18
  call void @llvm.lifetime.end.p0(i64 8, ptr %11) #6
  call void @llvm.lifetime.end.p0(i64 4, ptr %10) #6
  %54 = load i32, ptr %5, align 4
  ret i32 %54
}