; Function Attrs: null_pointer_is_valid sspstrong uwtable
define internal fastcc range(i32 9, -2147483633) i32 @dissect_gadu_gadu_userlist_xml_compressed(ptr noundef %0, ptr noundef %1, ptr noundef %2, i32 noundef range(i32 9, 16) %3) unnamed_addr #0 {
  %5 = tail call i32 @tvb_reported_length_remaining(ptr noundef %0, i32 noundef %3)
  %6 = icmp slt i32 %5, 1
  br i1 %6, label %18, label %7

7:                                                ; preds = %4
  %8 = tail call ptr @tvb_child_uncompress_zlib(ptr noundef %0, ptr noundef %0, i32 noundef %3, i32 noundef %5)
  %.not = icmp eq ptr %8, null
  %9 = load i32, ptr @hf_gadu_gadu_userlist, align 4
  br i1 %.not, label %14, label %10

10:                                               ; preds = %7
  %11 = tail call ptr (ptr, i32, ptr, i32, i32, ptr, ptr, ...) @proto_tree_add_bytes_format_value(ptr noundef %2, i32 noundef %9, ptr noundef %0, i32 noundef %3, i32 noundef %5, ptr noundef null, ptr noundef nonnull @.str.244, ptr noundef nonnull @.str.245)
  tail call void @add_new_data_source(ptr noundef %1, ptr noundef nonnull %8, ptr noundef nonnull @.str.246)
  %12 = load ptr, ptr @xml_handle, align 8
  %13 = tail call i32 @call_dissector_only(ptr noundef %12, ptr noundef nonnull %8, ptr noundef %1, ptr noundef %2, ptr noundef null)
  br label %16

14:                                               ; preds = %7
  %15 = tail call ptr (ptr, i32, ptr, i32, i32, ptr, ptr, ...) @proto_tree_add_bytes_format_value(ptr noundef %2, i32 noundef %9, ptr noundef %0, i32 noundef %3, i32 noundef %5, ptr noundef null, ptr noundef nonnull @.str.244, ptr noundef nonnull @.str.247)
  br label %16

16:                                               ; preds = %14, %10
  %17 = add nuw i32 %5, %3
  br label %18

18:                                               ; preds = %4, %16
  %.0 = phi i32 [ %17, %16 ], [ %3, %4 ]
  ret i32 %.0
}